target datalayout = "e-m:e-p270:32:32-p271:32:32-p272:64:64-i64:64-i128:128-f80:128-n8:16:32:64-S128"
target triple = "x86_64-unknown-linux-gnu"

%struct.UString = type { ptr, i32, i32 }
%struct.ParseState = type { [4 x %struct.Lookahead], i32, ptr, ptr, ptr, i32, ptr, i32, ptr, i8, i8, i8 }
%struct.Lookahead = type { i32, %struct.UString, %struct.UString, i32 }

@_ZL15dependencyArray = internal global ptr null, align 8
@.str.29 = private unnamed_addr constant [7 x i8] c"(null)\00", align 1
@.str.123 = private unnamed_addr constant [17 x i8] c" %s at line %i \0A\00", align 1
@.str.124 = private unnamed_addr constant [2 x i8] c"/\00", align 1
@.str.129 = private unnamed_addr constant [68 x i8] c"The dependency file %s does not exist. Please make sure it exists.\0A\00", align 1
@.str.130 = private unnamed_addr constant [13 x i8] c"%%DEPENDENCY\00", align 1

; Function Attrs: mustprogress nounwind uwtable
define internal noundef signext i8 @_ZL9U_FAILURE10UErrorCode(i32 noundef %code) #0 {
entry:
  %code.addr = alloca i32, align 4
  store i32 %code, ptr %code.addr, align 4
  %0 = load i32, ptr %code.addr, align 4
  %cmp = icmp sgt i32 %0, 0
  %conv = zext i1 %cmp to i8
  ret i8 %conv
}

; Function Attrs: mustprogress uwtable
define internal noundef ptr @_ZL15parseDependencyP10ParseStatePcjPK7UStringP10UErrorCode(ptr noundef %state, ptr noundef %tag, i32 noundef %startline, ptr noundef %comment, ptr noundef %status) #1 {
entry:
  %retval = alloca ptr, align 8
  %state.addr = alloca ptr, align 8
  %tag.addr = alloca ptr, align 8
  %startline.addr = alloca i32, align 4
  %comment.addr = alloca ptr, align 8
  %status.addr = alloca ptr, align 8
  %result = alloca ptr, align 8
  %elem = alloca ptr, align 8
  %tokenValue = alloca ptr, align 8
  %line = alloca i32, align 4
  %filename = alloca [256 x i8], align 16
  %cs = alloca [128 x i8], align 16
  store ptr %state, ptr %state.addr, align 8
  store ptr %tag, ptr %tag.addr, align 8
  store i32 %startline, ptr %startline.addr, align 4
  store ptr %comment, ptr %comment.addr, align 8
  store ptr %status, ptr %status.addr, align 8
  store ptr null, ptr %result, align 8
  store ptr null, ptr %elem, align 8
  call void @llvm.memset.p0.i64(ptr align 16 %filename, i8 0, i64 256, i1 false)
  call void @llvm.memset.p0.i64(ptr align 16 %cs, i8 0, i64 128, i1 false)
  %0 = load ptr, ptr %state.addr, align 8
  %1 = load ptr, ptr %status.addr, align 8
  call void @_ZL6expectP10ParseState10ETokenTypePP7UStringS3_PjP10UErrorCode(ptr noundef %0, i32 noundef 0, ptr noundef %tokenValue, ptr noundef null, ptr noundef %line, ptr noundef %1)
  %call = call signext i8 @isVerbose()
  %tobool = icmp ne i8 %call, 0
  br i1 %tobool, label %if.then, label %if.end

if.then:                                          ; preds = %entry
  %2 = load ptr, ptr %tag.addr, align 8
  %cmp = icmp eq ptr %2, null
  br i1 %cmp, label %cond.true, label %cond.false

cond.true:                                        ; preds = %if.then
  br label %cond.end

cond.false:                                       ; preds = %if.then
  %3 = load ptr, ptr %tag.addr, align 8
  br label %cond.end

cond.end:                                         ; preds = %cond.false, %cond.true
  %cond = phi ptr [ @.str.29, %cond.true ], [ %3, %cond.false ]
  %4 = load i32, ptr %startline.addr, align 4
  %call1 = call i32 (ptr, ...) @printf(ptr noundef @.str.123, ptr noundef %cond, i32 noundef %4)
  br label %if.end

if.end:                                           ; preds = %cond.end, %entry
  %5 = load ptr, ptr %status.addr, align 8
  %6 = load i32, ptr %5, align 4
  %call2 = call noundef signext i8 @_ZL9U_FAILURE10UErrorCode(i32 noundef %6)
  %tobool3 = icmp ne i8 %call2, 0
  br i1 %tobool3, label %if.then4, label %if.end5

if.then4:                                         ; preds = %if.end
  store ptr null, ptr %retval, align 8
  br label %return

if.end5:                                          ; preds = %if.end
  %7 = load ptr, ptr %state.addr, align 8
  %outputdir = getelementptr inbounds %struct.ParseState, ptr %7, i32 0, i32 6
  %8 = load ptr, ptr %outputdir, align 8
  %cmp6 = icmp ne ptr %8, null
  br i1 %cmp6, label %if.then7, label %if.end16

if.then7:                                         ; preds = %if.end5
  %arraydecay = getelementptr inbounds [256 x i8], ptr %filename, i64 0, i64 0
  %9 = load ptr, ptr %state.addr, align 8
  %outputdir8 = getelementptr inbounds %struct.ParseState, ptr %9, i32 0, i32 6
  %10 = load ptr, ptr %outputdir8, align 8
  %call9 = call ptr @strcat(ptr noundef %arraydecay, ptr noundef %10) #12
  %11 = load ptr, ptr %state.addr, align 8
  %outputdir10 = getelementptr inbounds %struct.ParseState, ptr %11, i32 0, i32 6
  %12 = load ptr, ptr %outputdir10, align 8
  %13 = load ptr, ptr %state.addr, align 8
  %outputdirLength = getelementptr inbounds %struct.ParseState, ptr %13, i32 0, i32 7
  %14 = load i32, ptr %outputdirLength, align 8
  %sub = sub i32 %14, 1
  %idxprom = zext i32 %sub to i64
  %arrayidx = getelementptr inbounds i8, ptr %12, i64 %idxprom
  %15 = load i8, ptr %arrayidx, align 1
  %conv = sext i8 %15 to i32
  %cmp11 = icmp ne i32 %conv, 47
  br i1 %cmp11, label %if.then12, label %if.end15

if.then12:                                        ; preds = %if.then7
  %arraydecay13 = getelementptr inbounds [256 x i8], ptr %filename, i64 0, i64 0
  %call14 = call ptr @strcat(ptr noundef %arraydecay13, ptr noundef @.str.124) #12
  br label %if.end15

if.end15:                                         ; preds = %if.then12, %if.then7
  br label %if.end16

if.end16:                                         ; preds = %if.end15, %if.end5
  %16 = load ptr, ptr %tokenValue, align 8
  %fChars = getelementptr inbounds %struct.UString, ptr %16, i32 0, i32 0
  %17 = load ptr, ptr %fChars, align 8
  %arraydecay17 = getelementptr inbounds [128 x i8], ptr %cs, i64 0, i64 0
  %18 = load ptr, ptr %tokenValue, align 8
  %fLength = getelementptr inbounds %struct.UString, ptr %18, i32 0, i32 1
  %19 = load i32, ptr %fLength, align 8
  call void @u_UCharsToChars_75(ptr noundef %17, ptr noundef %arraydecay17, i32 noundef %19)
  %20 = load ptr, ptr %status.addr, align 8
  %21 = load i32, ptr %20, align 4
  %call18 = call noundef signext i8 @_ZL9U_FAILURE10UErrorCode(i32 noundef %21)
  %tobool19 = icmp ne i8 %call18, 0
  br i1 %tobool19, label %if.then20, label %if.end21

if.then20:                                        ; preds = %if.end16
  store ptr null, ptr %retval, align 8
  br label %return

if.end21:                                         ; preds = %if.end16
  %arraydecay22 = getelementptr inbounds [256 x i8], ptr %filename, i64 0, i64 0
  %arraydecay23 = getelementptr inbounds [128 x i8], ptr %cs, i64 0, i64 0
  %call24 = call ptr @strcat(ptr noundef %arraydecay22, ptr noundef %arraydecay23) #12
  %arraydecay25 = getelementptr inbounds [256 x i8], ptr %filename, i64 0, i64 0
  %call26 = call signext i8 @T_FileStream_file_exists(ptr noundef %arraydecay25)
  %tobool27 = icmp ne i8 %call26, 0
  br i1 %tobool27, label %if.end35, label %if.then28

if.then28:                                        ; preds = %if.end21
  %call29 = call signext i8 @isStrict()
  %tobool30 = icmp ne i8 %call29, 0
  br i1 %tobool30, label %if.then31, label %if.else

if.then31:                                        ; preds = %if.then28
  %22 = load i32, ptr %line, align 4
  %arraydecay32 = getelementptr inbounds [256 x i8], ptr %filename, i64 0, i64 0
  call void (i32, ptr, ...) @error(i32 noundef %22, ptr noundef @.str.129, ptr noundef %arraydecay32)
  br label %if.end34

if.else:                                          ; preds = %if.then28
  %23 = load i32, ptr %line, align 4
  %arraydecay33 = getelementptr inbounds [256 x i8], ptr %filename, i64 0, i64 0
  call void (i32, ptr, ...) @warning(i32 noundef %23, ptr noundef @.str.129, ptr noundef %arraydecay33)
  br label %if.end34

if.end34:                                         ; preds = %if.else, %if.then31
  br label %if.end35

if.end35:                                         ; preds = %if.end34, %if.end21
  %24 = load ptr, ptr @_ZL15dependencyArray, align 8
  %cmp36 = icmp eq ptr %24, null
  br i1 %cmp36, label %if.then37, label %if.end39

if.then37:                                        ; preds = %if.end35
  %25 = load ptr, ptr %state.addr, align 8
  %bundle = getelementptr inbounds %struct.ParseState, ptr %25, i32 0, i32 3
  %26 = load ptr, ptr %bundle, align 8
  %27 = load ptr, ptr %status.addr, align 8
  %call38 = call ptr @array_open(ptr noundef %26, ptr noundef @.str.130, ptr noundef null, ptr noundef %27)
  store ptr %call38, ptr @_ZL15dependencyArray, align 8
  br label %if.end39

if.end39:                                         ; preds = %if.then37, %if.end35
  %28 = load ptr, ptr %tag.addr, align 8
  %cmp40 = icmp ne ptr %28, null
  br i1 %cmp40, label %if.then41, label %if.end46

if.then41:                                        ; preds = %if.end39
  %29 = load ptr, ptr %state.addr, align 8
  %bundle42 = getelementptr inbounds %struct.ParseState, ptr %29, i32 0, i32 3
  %30 = load ptr, ptr %bundle42, align 8
  %31 = load ptr, ptr %tag.addr, align 8
  %32 = load ptr, ptr %tokenValue, align 8
  %fChars43 = getelementptr inbounds %struct.UString, ptr %32, i32 0, i32 0
  %33 = load ptr, ptr %fChars43, align 8
  %34 = load ptr, ptr %tokenValue, align 8
  %fLength44 = getelementptr inbounds %struct.UString, ptr %34, i32 0, i32 1
  %35 = load i32, ptr %fLength44, align 8
  %36 = load ptr, ptr %comment.addr, align 8
  %37 = load ptr, ptr %status.addr, align 8
  %call45 = call ptr @string_open(ptr noundef %30, ptr noundef %31, ptr noundef %33, i32 noundef %35, ptr noundef %36, ptr noundef %37)
  store ptr %call45, ptr %result, align 8
  br label %if.end46

if.end46:                                         ; preds = %if.then41, %if.end39
  %38 = load ptr, ptr %state.addr, align 8
  %bundle47 = getelementptr inbounds %struct.ParseState, ptr %38, i32 0, i32 3
  %39 = load ptr, ptr %bundle47, align 8
  %40 = load ptr, ptr %tokenValue, align 8
  %fChars48 = getelementptr inbounds %struct.UString, ptr %40, i32 0, i32 0
  %41 = load ptr, ptr %fChars48, align 8
  %42 = load ptr, ptr %tokenValue, align 8
  %fLength49 = getelementptr inbounds %struct.UString, ptr %42, i32 0, i32 1
  %43 = load i32, ptr %fLength49, align 8
  %44 = load ptr, ptr %comment.addr, align 8
  %45 = load ptr, ptr %status.addr, align 8
  %call50 = call ptr @string_open(ptr noundef %39, ptr noundef null, ptr noundef %41, i32 noundef %43, ptr noundef %44, ptr noundef %45)
  store ptr %call50, ptr %elem, align 8
  %46 = load ptr, ptr @_ZL15dependencyArray, align 8
  %47 = load ptr, ptr %elem, align 8
  call void @_ZN13ArrayResource3addEP9SResource(ptr noundef nonnull align 8 dereferenceable(80) %46, ptr noundef %47)
  %48 = load ptr, ptr %status.addr, align 8
  %49 = load i32, ptr %48, align 4
  %call51 = call noundef signext i8 @_ZL9U_FAILURE10UErrorCode(i32 noundef %49)
  %tobool52 = icmp ne i8 %call51, 0
  br i1 %tobool52, label %if.then53, label %if.end54

if.then53:                                        ; preds = %if.end46
  store ptr null, ptr %retval, align 8
  br label %return

if.end54:                                         ; preds = %if.end46
  %50 = load ptr, ptr %state.addr, align 8
  %51 = load ptr, ptr %status.addr, align 8
  call void @_ZL6expectP10ParseState10ETokenTypePP7UStringS3_PjP10UErrorCode(ptr noundef %50, i32 noundef 2, ptr noundef null, ptr noundef null, ptr noundef null, ptr noundef %51)
  %52 = load ptr, ptr %result, align 8
  store ptr %52, ptr %retval, align 8
  br label %return

return:                                           ; preds = %if.end54, %if.then53, %if.then20, %if.then4
  %53 = load ptr, ptr %retval, align 8
  ret ptr %53
}