; Function Attrs: mustprogress uwtable
define internal noundef ptr @_ZL15parseDependencyP10ParseStatePcjPK7UStringP10UErrorCode(ptr noundef %state, ptr noundef %tag, i32 noundef %startline, ptr noundef %comment, ptr noundef %status) #1 {
entry:
  %tokenValue = alloca ptr, align 8
  %line = alloca i32, align 4
  %filename = alloca [256 x i8], align 16
  %cs = alloca [128 x i8], align 16
  call void @llvm.memset.p0.i64(ptr noundef nonnull align 16 dereferenceable(256) %filename, i8 0, i64 256, i1 false)
  call void @llvm.memset.p0.i64(ptr noundef nonnull align 16 dereferenceable(128) %cs, i8 0, i64 128, i1 false)
  call fastcc void @_ZL6expectP10ParseState10ETokenTypePP7UStringS3_PjP10UErrorCode(ptr noundef %state, i32 noundef 0, ptr noundef nonnull %tokenValue, ptr noundef null, ptr noundef nonnull %line, ptr noundef %status)
  %call = call signext i8 @isVerbose()
  %tobool.not = icmp eq i8 %call, 0
  br i1 %tobool.not, label %if.end, label %if.then

if.then:                                          ; preds = %entry
  %cmp = icmp eq ptr %tag, null
  %cond = select i1 %cmp, ptr @.str.29, ptr %tag
  %call1 = call i32 (ptr, ...) @printf(ptr noundef nonnull dereferenceable(1) @.str.123, ptr noundef nonnull %cond, i32 noundef %startline)
  br label %if.end

if.end:                                           ; preds = %if.then, %entry
  %0 = load i32, ptr %status, align 4
  %cmp.i = icmp slt i32 %0, 1
  br i1 %cmp.i, label %if.end5, label %return

if.end5:                                          ; preds = %if.end
  %outputdir = getelementptr inbounds i8, ptr %state, i64 232
  %1 = load ptr, ptr %outputdir, align 8
  %cmp6.not = icmp eq ptr %1, null
  br i1 %cmp6.not, label %if.end16, label %if.then7

if.then7:                                         ; preds = %if.end5
  %call9 = call ptr @strcat(ptr noundef nonnull dereferenceable(1) %filename, ptr noundef nonnull dereferenceable(1) %1) #19
  %outputdirLength = getelementptr inbounds i8, ptr %state, i64 240
  %2 = load i32, ptr %outputdirLength, align 8
  %sub = add i32 %2, -1
  %idxprom = zext i32 %sub to i64
  %arrayidx = getelementptr inbounds i8, ptr %1, i64 %idxprom
  %3 = load i8, ptr %arrayidx, align 1
  %cmp11.not = icmp eq i8 %3, 47
  br i1 %cmp11.not, label %if.end16, label %if.then12

if.then12:                                        ; preds = %if.then7
  %strlen = call i64 @strlen(ptr nonnull dereferenceable(1) %filename)
  %endptr = getelementptr inbounds i8, ptr %filename, i64 %strlen
  store i16 47, ptr %endptr, align 1
  br label %if.end16

if.end16:                                         ; preds = %if.then7, %if.then12, %if.end5
  %4 = load ptr, ptr %tokenValue, align 8
  %5 = load ptr, ptr %4, align 8
  %fLength = getelementptr inbounds i8, ptr %4, i64 8
  %6 = load i32, ptr %fLength, align 8
  call void @u_UCharsToChars_75(ptr noundef %5, ptr noundef nonnull %cs, i32 noundef %6)
  %7 = load i32, ptr %status, align 4
  %cmp.i20 = icmp slt i32 %7, 1
  br i1 %cmp.i20, label %if.end21, label %return

if.end21:                                         ; preds = %if.end16
  %call24 = call ptr @strcat(ptr noundef nonnull dereferenceable(1) %filename, ptr noundef nonnull dereferenceable(1) %cs) #19
  %call26 = call signext i8 @T_FileStream_file_exists(ptr noundef nonnull %filename)
  %tobool27.not = icmp eq i8 %call26, 0
  br i1 %tobool27.not, label %if.then28, label %if.end35

if.then28:                                        ; preds = %if.end21
  %call29 = call signext i8 @isStrict()
  %tobool30.not = icmp eq i8 %call29, 0
  %8 = load i32, ptr %line, align 4
  br i1 %tobool30.not, label %if.else, label %if.then31

if.then31:                                        ; preds = %if.then28
  call void (i32, ptr, ...) @error(i32 noundef %8, ptr noundef nonnull @.str.129, ptr noundef nonnull %filename)
  br label %if.end35

if.else:                                          ; preds = %if.then28
  call void (i32, ptr, ...) @warning(i32 noundef %8, ptr noundef nonnull @.str.129, ptr noundef nonnull %filename)
  br label %if.end35

if.end35:                                         ; preds = %if.then31, %if.else, %if.end21
  %9 = load ptr, ptr @_ZL15dependencyArray, align 8
  %cmp36 = icmp eq ptr %9, null
  br i1 %cmp36, label %if.then37, label %if.end39

if.then37:                                        ; preds = %if.end35
  %bundle = getelementptr inbounds i8, ptr %state, i64 208
  %10 = load ptr, ptr %bundle, align 8
  %call38 = call ptr @array_open(ptr noundef %10, ptr noundef nonnull @.str.130, ptr noundef null, ptr noundef nonnull %status)
  store ptr %call38, ptr @_ZL15dependencyArray, align 8
  br label %if.end39

if.end39:                                         ; preds = %if.then37, %if.end35
  %cmp40.not = icmp eq ptr %tag, null
  br i1 %cmp40.not, label %if.end46, label %if.then41

if.then41:                                        ; preds = %if.end39
  %bundle42 = getelementptr inbounds i8, ptr %state, i64 208
  %11 = load ptr, ptr %bundle42, align 8
  %12 = load ptr, ptr %tokenValue, align 8
  %13 = load ptr, ptr %12, align 8
  %fLength44 = getelementptr inbounds i8, ptr %12, i64 8
  %14 = load i32, ptr %fLength44, align 8
  %call45 = call ptr @string_open(ptr noundef %11, ptr noundef nonnull %tag, ptr noundef %13, i32 noundef %14, ptr noundef %comment, ptr noundef nonnull %status)
  br label %if.end46

if.end46:                                         ; preds = %if.then41, %if.end39
  %result.0 = phi ptr [ %call45, %if.then41 ], [ null, %if.end39 ]
  %bundle47 = getelementptr inbounds i8, ptr %state, i64 208
  %15 = load ptr, ptr %bundle47, align 8
  %16 = load ptr, ptr %tokenValue, align 8
  %17 = load ptr, ptr %16, align 8
  %fLength49 = getelementptr inbounds i8, ptr %16, i64 8
  %18 = load i32, ptr %fLength49, align 8
  %call50 = call ptr @string_open(ptr noundef %15, ptr noundef null, ptr noundef %17, i32 noundef %18, ptr noundef %comment, ptr noundef nonnull %status)
  %19 = load ptr, ptr @_ZL15dependencyArray, align 8
  call void @_ZN13ArrayResource3addEP9SResource(ptr noundef nonnull align 8 dereferenceable(80) %19, ptr noundef %call50)
  %20 = load i32, ptr %status, align 4
  %cmp.i22 = icmp slt i32 %20, 1
  br i1 %cmp.i22, label %if.end54, label %return

if.end54:                                         ; preds = %if.end46
  %lookaheadPosition.i.i = getelementptr inbounds i8, ptr %state, i64 192
  %21 = load i32, ptr %lookaheadPosition.i.i, align 8
  %idxprom.i.i = zext i32 %21 to i64
  %arrayidx.i.i = getelementptr inbounds [4 x %struct.Lookahead], ptr %state, i64 0, i64 %idxprom.i.i
  %22 = load i32, ptr %arrayidx.i.i, align 8
  %line.i.i = getelementptr inbounds [4 x %struct.Lookahead], ptr %state, i64 0, i64 %idxprom.i.i, i32 3
  %23 = load i32, ptr %line.i.i, align 8
  %add.i.i = add i32 %21, 3
  %rem.i.i = and i32 %add.i.i, 3
  %add22.i.i = add i32 %21, 1
  %rem23.i.i = and i32 %add22.i.i, 3
  store i32 %rem23.i.i, ptr %lookaheadPosition.i.i, align 8
  %idxprom26.i.i = zext nneg i32 %rem.i.i to i64
  %arrayidx27.i.i = getelementptr inbounds [4 x %struct.Lookahead], ptr %state, i64 0, i64 %idxprom26.i.i
  %comment28.i.i = getelementptr inbounds i8, ptr %arrayidx27.i.i, i64 24
  call void @ustr_setlen(ptr noundef nonnull %comment28.i.i, i32 noundef 0, ptr noundef nonnull %status)
  %value32.i.i = getelementptr inbounds i8, ptr %arrayidx27.i.i, i64 8
  call void @ustr_setlen(ptr noundef nonnull %value32.i.i, i32 noundef 0, ptr noundef nonnull %status)
  %buffer.i.i = getelementptr inbounds i8, ptr %state, i64 200
  %24 = load ptr, ptr %buffer.i.i, align 8
  %line40.i.i = getelementptr inbounds i8, ptr %arrayidx27.i.i, i64 40
  %call.i.i = call i32 @getNextToken(ptr noundef %24, ptr noundef nonnull %value32.i.i, ptr noundef nonnull %line40.i.i, ptr noundef nonnull %comment28.i.i, ptr noundef nonnull %status)
  store i32 %call.i.i, ptr %arrayidx27.i.i, align 8
  %25 = load i32, ptr %status, align 4
  %cmp.i.i = icmp slt i32 %25, 1
  br i1 %cmp.i.i, label %if.end3.i, label %return

if.end3.i:                                        ; preds = %if.end54
  %cmp4.not.i = icmp eq i32 %22, 2
  br i1 %cmp4.not.i, label %if.else.i, label %if.then5.i

if.then5.i:                                       ; preds = %if.end3.i
  store i32 3, ptr %status, align 4
  %26 = load ptr, ptr getelementptr inbounds ([7 x ptr], ptr @tokenNames, i64 0, i64 2), align 16
  %idxprom6.i = zext i32 %22 to i64
  %arrayidx7.i = getelementptr inbounds [7 x ptr], ptr @tokenNames, i64 0, i64 %idxprom6.i
  %27 = load ptr, ptr %arrayidx7.i, align 8
  call void (i32, ptr, ...) @error(i32 noundef %23, ptr noundef nonnull @.str.10, ptr noundef %26, ptr noundef %27)
  br label %return

if.else.i:                                        ; preds = %if.end3.i
  store i32 0, ptr %status, align 4
  br label %return

return:                                           ; preds = %if.else.i, %if.then5.i, %if.end54, %if.end46, %if.end16, %if.end
  %retval.0 = phi ptr [ null, %if.end ], [ null, %if.end16 ], [ null, %if.end46 ], [ %result.0, %if.end54 ], [ %result.0, %if.then5.i ], [ %result.0, %if.else.i ]
  ret ptr %retval.0
}